target datalayout = "e-m:e-p270:32:32-p271:32:32-p272:64:64-i64:64-i128:128-f80:128-n8:16:32:64-S128"
target triple = "x86_64-pc-linux-gnu"

%struct.zlentry = type { i32, i32, i32, i32, i32, i8, ptr }

@.str.1 = private unnamed_addr constant [10 x i8] c"ziplist.c\00", align 1
@.str.13 = private unnamed_addr constant [12 x i8] c"prevlen > 0\00", align 1
@.str.14 = private unnamed_addr constant [36 x i8] c"zipEntrySafe(zl, zlbytes, p, &e, 1)\00", align 1

; Function Attrs: inlinehint nounwind uwtable
define internal void @zipAssertValidEntry(ptr noundef %0, i64 noundef %1, ptr noundef %2) #8 {
  %4 = alloca ptr, align 8
  %5 = alloca i64, align 8
  %6 = alloca ptr, align 8
  %7 = alloca %struct.zlentry, align 8
  store ptr %0, ptr %4, align 8, !tbaa !5
  store i64 %1, ptr %5, align 8, !tbaa !10
  store ptr %2, ptr %6, align 8, !tbaa !5
  call void @llvm.lifetime.start.p0(i64 32, ptr %7) #11
  %8 = load ptr, ptr %4, align 8, !tbaa !5
  %9 = load i64, ptr %5, align 8, !tbaa !10
  %10 = load ptr, ptr %6, align 8, !tbaa !5
  %11 = call i32 @zipEntrySafe(ptr noundef %8, i64 noundef %9, ptr noundef %10, ptr noundef %7, i32 noundef 1)
  %12 = icmp ne i32 %11, 0
  %13 = xor i1 %12, true
  %14 = xor i1 %13, true
  %15 = zext i1 %14 to i32
  %16 = sext i32 %15 to i64
  %17 = call i64 @llvm.expect.i64(i64 %16, i64 1)
  %18 = icmp ne i64 %17, 0
  br i1 %18, label %19, label %20

19:                                               ; preds = %3
  br label %22

20:                                               ; preds = %3
  call void @_serverAssert(ptr noundef @.str.14, ptr noundef @.str.1, i32 noundef 707)
  call void @abort() #12
  unreachable

21:                                               ; No predecessors!
  br label %22

22:                                               ; preds = %21, %19
  call void @llvm.lifetime.end.p0(i64 32, ptr %7) #11
  ret void
}

; Function Attrs: nounwind uwtable
define dso_local ptr @ziplistPrev(ptr noundef %0, ptr noundef %1) #0 {
  %3 = alloca ptr, align 8
  %4 = alloca ptr, align 8
  %5 = alloca ptr, align 8
  %6 = alloca i32, align 4
  %7 = alloca i32, align 4
  %8 = alloca i32, align 4
  %9 = alloca i64, align 8
  store ptr %0, ptr %4, align 8, !tbaa !5
  store ptr %1, ptr %5, align 8, !tbaa !5
  call void @llvm.lifetime.start.p0(i64 4, ptr %6) #11
  call void @llvm.lifetime.start.p0(i64 4, ptr %7) #11
  store i32 0, ptr %7, align 4, !tbaa !12
  %10 = load ptr, ptr %5, align 8, !tbaa !5
  %11 = getelementptr inbounds i8, ptr %10, i64 0
  %12 = load i8, ptr %11, align 1, !tbaa !14
  %13 = zext i8 %12 to i32
  %14 = icmp eq i32 %13, 255
  br i1 %14, label %15, label %32

15:                                               ; preds = %2
  %16 = load ptr, ptr %4, align 8, !tbaa !5
  %17 = load ptr, ptr %4, align 8, !tbaa !5
  %18 = getelementptr inbounds nuw i8, ptr %17, i64 4
  %19 = load i32, ptr %18, align 4, !tbaa !12
  %20 = zext i32 %19 to i64
  %21 = getelementptr inbounds nuw i8, ptr %16, i64 %20
  store ptr %21, ptr %5, align 8, !tbaa !5
  %22 = load ptr, ptr %5, align 8, !tbaa !5
  %23 = getelementptr inbounds i8, ptr %22, i64 0
  %24 = load i8, ptr %23, align 1, !tbaa !14
  %25 = zext i8 %24 to i32
  %26 = icmp eq i32 %25, 255
  br i1 %26, label %27, label %28

27:                                               ; preds = %15
  br label %30

28:                                               ; preds = %15
  %29 = load ptr, ptr %5, align 8, !tbaa !5
  br label %30

30:                                               ; preds = %28, %27
  %31 = phi ptr [ null, %27 ], [ %29, %28 ]
  store ptr %31, ptr %3, align 8
  store i32 1, ptr %8, align 4
  br label %108

32:                                               ; preds = %2
  %33 = load ptr, ptr %5, align 8, !tbaa !5
  %34 = load ptr, ptr %4, align 8, !tbaa !5
  %35 = getelementptr inbounds nuw i8, ptr %34, i64 10
  %36 = icmp eq ptr %33, %35
  br i1 %36, label %37, label %38

37:                                               ; preds = %32
  store ptr null, ptr %3, align 8
  store i32 1, ptr %8, align 4
  br label %108

38:                                               ; preds = %32
  br label %39

39:                                               ; preds = %38
  br label %40

40:                                               ; preds = %39
  %41 = load ptr, ptr %5, align 8, !tbaa !5
  %42 = getelementptr inbounds i8, ptr %41, i64 0
  %43 = load i8, ptr %42, align 1, !tbaa !14
  %44 = zext i8 %43 to i32
  %45 = icmp slt i32 %44, 254
  br i1 %45, label %46, label %47

46:                                               ; preds = %40
  store i32 1, ptr %6, align 4, !tbaa !12
  br label %48

47:                                               ; preds = %40
  store i32 5, ptr %6, align 4, !tbaa !12
  br label %48

48:                                               ; preds = %47, %46
  br label %49

49:                                               ; preds = %48
  br label %50

50:                                               ; preds = %49
  %51 = load i32, ptr %6, align 4, !tbaa !12
  %52 = icmp eq i32 %51, 1
  br i1 %52, label %53, label %58

53:                                               ; preds = %50
  %54 = load ptr, ptr %5, align 8, !tbaa !5
  %55 = getelementptr inbounds i8, ptr %54, i64 0
  %56 = load i8, ptr %55, align 1, !tbaa !14
  %57 = zext i8 %56 to i32
  store i32 %57, ptr %7, align 4, !tbaa !12
  br label %81

58:                                               ; preds = %50
  %59 = load ptr, ptr %5, align 8, !tbaa !5
  %60 = getelementptr inbounds i8, ptr %59, i64 4
  %61 = load i8, ptr %60, align 1, !tbaa !14
  %62 = zext i8 %61 to i32
  %63 = shl i32 %62, 24
  %64 = load ptr, ptr %5, align 8, !tbaa !5
  %65 = getelementptr inbounds i8, ptr %64, i64 3
  %66 = load i8, ptr %65, align 1, !tbaa !14
  %67 = zext i8 %66 to i32
  %68 = shl i32 %67, 16
  %69 = or i32 %63, %68
  %70 = load ptr, ptr %5, align 8, !tbaa !5
  %71 = getelementptr inbounds i8, ptr %70, i64 2
  %72 = load i8, ptr %71, align 1, !tbaa !14
  %73 = zext i8 %72 to i32
  %74 = shl i32 %73, 8
  %75 = or i32 %69, %74
  %76 = load ptr, ptr %5, align 8, !tbaa !5
  %77 = getelementptr inbounds i8, ptr %76, i64 1
  %78 = load i8, ptr %77, align 1, !tbaa !14
  %79 = zext i8 %78 to i32
  %80 = or i32 %75, %79
  store i32 %80, ptr %7, align 4, !tbaa !12
  br label %81

81:                                               ; preds = %58, %53
  br label %82

82:                                               ; preds = %81
  br label %83

83:                                               ; preds = %82
  %84 = load i32, ptr %7, align 4, !tbaa !12
  %85 = icmp ugt i32 %84, 0
  %86 = xor i1 %85, true
  %87 = xor i1 %86, true
  %88 = zext i1 %87 to i32
  %89 = sext i32 %88 to i64
  %90 = call i64 @llvm.expect.i64(i64 %89, i64 1)
  %91 = icmp ne i64 %90, 0
  br i1 %91, label %92, label %93

92:                                               ; preds = %83
  br label %95

93:                                               ; preds = %83
  call void @_serverAssert(ptr noundef @.str.13, ptr noundef @.str.1, i32 noundef 1227)
  call void @abort() #12
  unreachable

94:                                               ; No predecessors!
  br label %95

95:                                               ; preds = %94, %92
  %96 = load i32, ptr %7, align 4, !tbaa !12
  %97 = load ptr, ptr %5, align 8, !tbaa !5
  %98 = zext i32 %96 to i64
  %99 = sub i64 0, %98
  %100 = getelementptr inbounds i8, ptr %97, i64 %99
  store ptr %100, ptr %5, align 8, !tbaa !5
  call void @llvm.lifetime.start.p0(i64 8, ptr %9) #11
  %101 = load ptr, ptr %4, align 8, !tbaa !5
  %102 = load i32, ptr %101, align 4, !tbaa !12
  %103 = zext i32 %102 to i64
  store i64 %103, ptr %9, align 8, !tbaa !10
  %104 = load ptr, ptr %4, align 8, !tbaa !5
  %105 = load i64, ptr %9, align 8, !tbaa !10
  %106 = load ptr, ptr %5, align 8, !tbaa !5
  call void @zipAssertValidEntry(ptr noundef %104, i64 noundef %105, ptr noundef %106)
  %107 = load ptr, ptr %5, align 8, !tbaa !5
  store ptr %107, ptr %3, align 8
  store i32 1, ptr %8, align 4
  call void @llvm.lifetime.end.p0(i64 8, ptr %9) #11
  br label %108

108:                                              ; preds = %95, %37, %30
  call void @llvm.lifetime.end.p0(i64 4, ptr %7) #11
  call void @llvm.lifetime.end.p0(i64 4, ptr %6) #11
  %109 = load ptr, ptr %3, align 8
  ret ptr %109
}