; Function Attrs: nounwind uwtable
define dso_local ptr @ziplistPrev(ptr noundef captures(address, ret: address, provenance) %0, ptr noundef %1) local_unnamed_addr #5 {
  %3 = alloca %struct.zlentry, align 8
  %4 = load i8, ptr %1, align 1, !tbaa !9
  %5 = icmp eq i8 %4, -1
  br i1 %5, label %6, label %14

6:                                                ; preds = %2
  %7 = getelementptr inbounds nuw i8, ptr %0, i64 4
  %8 = load i32, ptr %7, align 4, !tbaa !5
  %9 = zext i32 %8 to i64
  %10 = getelementptr inbounds nuw i8, ptr %0, i64 %9
  %11 = load i8, ptr %10, align 1, !tbaa !9
  %12 = icmp eq i8 %11, -1
  %13 = select i1 %12, ptr null, ptr %10
  br label %33

14:                                               ; preds = %2
  %15 = getelementptr inbounds nuw i8, ptr %0, i64 10
  %16 = icmp eq ptr %1, %15
  br i1 %16, label %33, label %17

17:                                               ; preds = %14
  %.not.not = icmp eq i8 %4, -2
  br i1 %.not.not, label %20, label %18

18:                                               ; preds = %17
  %19 = zext i8 %4 to i32
  br label %23

20:                                               ; preds = %17
  %21 = getelementptr i8, ptr %1, i64 1
  %22 = load i32, ptr %21, align 1
  br label %23

23:                                               ; preds = %20, %18
  %.022 = phi i32 [ %19, %18 ], [ %22, %20 ]
  %.not = icmp eq i32 %.022, 0
  br i1 %.not, label %24, label %25, !prof !24

24:                                               ; preds = %23
  tail call void @_serverAssert(ptr noundef nonnull @.str.13, ptr noundef nonnull @.str.1, i32 noundef 1227) #17
  tail call void @abort() #18
  unreachable

25:                                               ; preds = %23
  %26 = zext i32 %.022 to i64
  %27 = sub nsw i64 0, %26
  %28 = getelementptr inbounds i8, ptr %1, i64 %27
  %29 = load i32, ptr %0, align 4, !tbaa !5
  %30 = zext i32 %29 to i64
  call void @llvm.lifetime.start.p0(i64 32, ptr nonnull %3) #17
  %31 = call fastcc i32 @zipEntrySafe(ptr noundef nonnull %0, i64 noundef range(i64 0, 4294967296) %30, ptr noundef nonnull %28, ptr noundef %3, i32 noundef 1)
  %.not.i = icmp eq i32 %31, 0
  br i1 %.not.i, label %32, label %zipAssertValidEntry.exit, !prof !24

32:                                               ; preds = %25
  tail call void @_serverAssert(ptr noundef nonnull @.str.14, ptr noundef nonnull @.str.1, i32 noundef 707) #17
  tail call void @abort() #18
  unreachable

zipAssertValidEntry.exit:                         ; preds = %25
  call void @llvm.lifetime.end.p0(i64 32, ptr nonnull %3) #17
  br label %33

33:                                               ; preds = %14, %zipAssertValidEntry.exit, %6
  %.0 = phi ptr [ %13, %6 ], [ %28, %zipAssertValidEntry.exit ], [ null, %14 ]
  ret ptr %.0
}